target datalayout = "e-m:e-p270:32:32-p271:32:32-p272:64:64-i64:64-i128:128-f80:128-n8:16:32:64-S128"
target triple = "x86_64-pc-linux-gnu"

%struct.PJconsts = type { ptr, ptr, ptr, ptr, ptr, ptr, ptr, ptr, ptr, ptr, ptr, ptr, i32, ptr, ptr, ptr, ptr, ptr, ptr, ptr, ptr, double, double, double, double, double, double, double, double, double, double, double, double, double, double, double, double, double, double, double, double, double, double, i32, i32, i32, i32, i32, i32, i32, i32, i32, i32, i32, ptr, ptr, ptr, ptr, ptr, ptr, double, double, double, double, double, double, double, double, double, double, double, i32, [7 x double], i32, ptr, ptr, double, double, i32, [4 x i8], %"class.std::shared_ptr", i8, double, i8, %"class.std::__cxx11::basic_string", %"class.std::__cxx11::basic_string", %"class.std::__cxx11::basic_string", i8, %"class.std::vector", i32, %"class.std::vector.3", i32, i8, i8, i8, ptr }
%"class.std::shared_ptr" = type { %"class.std::__shared_ptr" }
%"class.std::__shared_ptr" = type { ptr, %"class.std::__shared_count" }
%"class.std::__shared_count" = type { ptr }
%"class.std::__cxx11::basic_string" = type { %"struct.std::__cxx11::basic_string<char>::_Alloc_hider", i64, %union.anon }
%"struct.std::__cxx11::basic_string<char>::_Alloc_hider" = type { ptr }
%union.anon = type { i64, [8 x i8] }
%"class.std::vector" = type { %"struct.std::_Vector_base" }
%"struct.std::_Vector_base" = type { %"struct.std::_Vector_base<osgeo::proj::operation::GridDescription, std::allocator<osgeo::proj::operation::GridDescription>>::_Vector_impl" }
%"struct.std::_Vector_base<osgeo::proj::operation::GridDescription, std::allocator<osgeo::proj::operation::GridDescription>>::_Vector_impl" = type { %"struct.std::_Vector_base<osgeo::proj::operation::GridDescription, std::allocator<osgeo::proj::operation::GridDescription>>::_Vector_impl_data" }
%"struct.std::_Vector_base<osgeo::proj::operation::GridDescription, std::allocator<osgeo::proj::operation::GridDescription>>::_Vector_impl_data" = type { ptr, ptr, ptr }
%"class.std::vector.3" = type { %"struct.std::_Vector_base.4" }
%"struct.std::_Vector_base.4" = type { %"struct.std::_Vector_base<PJCoordOperation, std::allocator<PJCoordOperation>>::_Vector_impl" }
%"struct.std::_Vector_base<PJCoordOperation, std::allocator<PJCoordOperation>>::_Vector_impl" = type { %"struct.std::_Vector_base<PJCoordOperation, std::allocator<PJCoordOperation>>::_Vector_impl_data" }
%"struct.std::_Vector_base<PJCoordOperation, std::allocator<PJCoordOperation>>::_Vector_impl_data" = type { ptr, ptr, ptr }
%"struct.pj_imoll_o_ns::pj_imoll_o_data" = type { [6 x ptr], double, double, double, double }
%struct.PJ_LP = type { double, double }
%struct.PJ_XY = type { double, double }

; Function Attrs: mustprogress uwtable
define internal { double, double } @_ZL17imoll_o_s_forward5PJ_LPP8PJconsts(double %0, double %1, ptr noundef %2) #0 {
  %4 = alloca %struct.PJ_XY, align 8
  %5 = alloca %struct.PJ_LP, align 8
  %6 = alloca ptr, align 8
  %7 = alloca ptr, align 8
  %8 = alloca i32, align 4
  %9 = alloca %struct.PJ_XY, align 8
  %10 = alloca %struct.PJ_LP, align 8
  %11 = getelementptr inbounds nuw { double, double }, ptr %5, i32 0, i32 0
  store double %0, ptr %11, align 8
  %12 = getelementptr inbounds nuw { double, double }, ptr %5, i32 0, i32 1
  store double %1, ptr %12, align 8
  store ptr %2, ptr %6, align 8, !tbaa !3
  call void @llvm.lifetime.start.p0(i64 8, ptr %7) #7
  %13 = load ptr, ptr %6, align 8, !tbaa !3
  %14 = getelementptr inbounds nuw %struct.PJconsts, ptr %13, i32 0, i32 11
  %15 = load ptr, ptr %14, align 8, !tbaa !43
  store ptr %15, ptr %7, align 8, !tbaa !41
  call void @llvm.lifetime.start.p0(i64 4, ptr %8) #7
  %16 = getelementptr inbounds nuw %struct.PJ_LP, ptr %5, i32 0, i32 1
  %17 = load double, ptr %16, align 8, !tbaa !64
  %18 = fcmp oge double %17, 0.000000e+00
  br i1 %18, label %19, label %32

19:                                               ; preds = %3
  %20 = getelementptr inbounds nuw %struct.PJ_LP, ptr %5, i32 0, i32 0
  %21 = load double, ptr %20, align 8, !tbaa !62
  %22 = fcmp ole double %21, 0xBFF921FB54442D18
  br i1 %22, label %23, label %24

23:                                               ; preds = %19
  store i32 1, ptr %8, align 4, !tbaa !54
  br label %31

24:                                               ; preds = %19
  %25 = getelementptr inbounds nuw %struct.PJ_LP, ptr %5, i32 0, i32 0
  %26 = load double, ptr %25, align 8, !tbaa !62
  %27 = fcmp oge double %26, 0x3FF0C152382D7365
  br i1 %27, label %28, label %29

28:                                               ; preds = %24
  store i32 3, ptr %8, align 4, !tbaa !54
  br label %30

29:                                               ; preds = %24
  store i32 2, ptr %8, align 4, !tbaa !54
  br label %30

30:                                               ; preds = %29, %28
  br label %31

31:                                               ; preds = %30, %23
  br label %45

32:                                               ; preds = %3
  %33 = getelementptr inbounds nuw %struct.PJ_LP, ptr %5, i32 0, i32 0
  %34 = load double, ptr %33, align 8, !tbaa !62
  %35 = fcmp ole double %34, 0xBFF0C152382D7365
  br i1 %35, label %36, label %37

36:                                               ; preds = %32
  store i32 4, ptr %8, align 4, !tbaa !54
  br label %44

37:                                               ; preds = %32
  %38 = getelementptr inbounds nuw %struct.PJ_LP, ptr %5, i32 0, i32 0
  %39 = load double, ptr %38, align 8, !tbaa !62
  %40 = fcmp oge double %39, 0x3FF921FB54442D18
  br i1 %40, label %41, label %42

41:                                               ; preds = %37
  store i32 6, ptr %8, align 4, !tbaa !54
  br label %43

42:                                               ; preds = %37
  store i32 5, ptr %8, align 4, !tbaa !54
  br label %43

43:                                               ; preds = %42, %41
  br label %44

44:                                               ; preds = %43, %36
  br label %45

45:                                               ; preds = %44, %31
  %46 = load ptr, ptr %7, align 8, !tbaa !41
  %47 = getelementptr inbounds nuw %"struct.pj_imoll_o_ns::pj_imoll_o_data", ptr %46, i32 0, i32 0
  %48 = load i32, ptr %8, align 4, !tbaa !54
  %49 = sub nsw i32 %48, 1
  %50 = sext i32 %49 to i64
  %51 = getelementptr inbounds [6 x ptr], ptr %47, i64 0, i64 %50
  %52 = load ptr, ptr %51, align 8, !tbaa !3
  %53 = getelementptr inbounds nuw %struct.PJconsts, ptr %52, i32 0, i32 60
  %54 = load double, ptr %53, align 8, !tbaa !59
  %55 = getelementptr inbounds nuw %struct.PJ_LP, ptr %5, i32 0, i32 0
  %56 = load double, ptr %55, align 8, !tbaa !62
  %57 = fsub double %56, %54
  store double %57, ptr %55, align 8, !tbaa !62
  call void @llvm.lifetime.start.p0(i64 16, ptr %9) #7
  %58 = load ptr, ptr %7, align 8, !tbaa !41
  %59 = getelementptr inbounds nuw %"struct.pj_imoll_o_ns::pj_imoll_o_data", ptr %58, i32 0, i32 0
  %60 = load i32, ptr %8, align 4, !tbaa !54
  %61 = sub nsw i32 %60, 1
  %62 = sext i32 %61 to i64
  %63 = getelementptr inbounds [6 x ptr], ptr %59, i64 0, i64 %62
  %64 = load ptr, ptr %63, align 8, !tbaa !3
  %65 = getelementptr inbounds nuw %struct.PJconsts, ptr %64, i32 0, i32 13
  %66 = load ptr, ptr %65, align 8, !tbaa !51
  call void @llvm.memcpy.p0.p0.i64(ptr align 8 %10, ptr align 8 %5, i64 16, i1 false), !tbaa.struct !65
  %67 = load ptr, ptr %7, align 8, !tbaa !41
  %68 = getelementptr inbounds nuw %"struct.pj_imoll_o_ns::pj_imoll_o_data", ptr %67, i32 0, i32 0
  %69 = load i32, ptr %8, align 4, !tbaa !54
  %70 = sub nsw i32 %69, 1
  %71 = sext i32 %70 to i64
  %72 = getelementptr inbounds [6 x ptr], ptr %68, i64 0, i64 %71
  %73 = load ptr, ptr %72, align 8, !tbaa !3
  %74 = getelementptr inbounds nuw { double, double }, ptr %10, i32 0, i32 0
  %75 = load double, ptr %74, align 8
  %76 = getelementptr inbounds nuw { double, double }, ptr %10, i32 0, i32 1
  %77 = load double, ptr %76, align 8
  %78 = call { double, double } %66(double %75, double %77, ptr noundef %73)
  %79 = getelementptr inbounds nuw { double, double }, ptr %9, i32 0, i32 0
  %80 = extractvalue { double, double } %78, 0
  store double %80, ptr %79, align 8
  %81 = getelementptr inbounds nuw { double, double }, ptr %9, i32 0, i32 1
  %82 = extractvalue { double, double } %78, 1
  store double %82, ptr %81, align 8
  call void @llvm.memcpy.p0.p0.i64(ptr align 8 %4, ptr align 8 %9, i64 16, i1 false), !tbaa.struct !65
  call void @llvm.lifetime.end.p0(i64 16, ptr %9) #7
  %83 = load ptr, ptr %7, align 8, !tbaa !41
  %84 = getelementptr inbounds nuw %"struct.pj_imoll_o_ns::pj_imoll_o_data", ptr %83, i32 0, i32 0
  %85 = load i32, ptr %8, align 4, !tbaa !54
  %86 = sub nsw i32 %85, 1
  %87 = sext i32 %86 to i64
  %88 = getelementptr inbounds [6 x ptr], ptr %84, i64 0, i64 %87
  %89 = load ptr, ptr %88, align 8, !tbaa !3
  %90 = getelementptr inbounds nuw %struct.PJconsts, ptr %89, i32 0, i32 62
  %91 = load double, ptr %90, align 8, !tbaa !44
  %92 = getelementptr inbounds nuw %struct.PJ_XY, ptr %4, i32 0, i32 0
  %93 = load double, ptr %92, align 8, !tbaa !66
  %94 = fadd double %93, %91
  store double %94, ptr %92, align 8, !tbaa !66
  %95 = load ptr, ptr %7, align 8, !tbaa !41
  %96 = getelementptr inbounds nuw %"struct.pj_imoll_o_ns::pj_imoll_o_data", ptr %95, i32 0, i32 0
  %97 = load i32, ptr %8, align 4, !tbaa !54
  %98 = sub nsw i32 %97, 1
  %99 = sext i32 %98 to i64
  %100 = getelementptr inbounds [6 x ptr], ptr %96, i64 0, i64 %99
  %101 = load ptr, ptr %100, align 8, !tbaa !3
  %102 = getelementptr inbounds nuw %struct.PJconsts, ptr %101, i32 0, i32 63
  %103 = load double, ptr %102, align 8, !tbaa !58
  %104 = getelementptr inbounds nuw %struct.PJ_XY, ptr %4, i32 0, i32 1
  %105 = load double, ptr %104, align 8, !tbaa !68
  %106 = fadd double %105, %103
  store double %106, ptr %104, align 8, !tbaa !68
  call void @llvm.lifetime.end.p0(i64 4, ptr %8) #7
  call void @llvm.lifetime.end.p0(i64 8, ptr %7) #7
  %107 = load { double, double }, ptr %4, align 8
  ret { double, double } %107
}