; Function Attrs: mustprogress uwtable
define internal { double, double } @_ZL17imoll_o_s_forward5PJ_LPP8PJconsts(double %0, double %1, ptr noundef readonly captures(none) %2) #0 {
  %4 = getelementptr inbounds nuw i8, ptr %2, i64 88
  %5 = load ptr, ptr %4, align 8, !tbaa !40
  %6 = fcmp ult double %1, 0.000000e+00
  br i1 %6, label %11, label %7

7:                                                ; preds = %3
  %8 = fcmp ugt double %0, 0xBFF921FB54442D18
  br i1 %8, label %9, label %15

9:                                                ; preds = %7
  %10 = fcmp ult double %0, 0x3FF0C152382D7365
  %. = select i1 %10, i64 1, i64 2
  br label %15

11:                                               ; preds = %3
  %12 = fcmp ugt double %0, 0xBFF0C152382D7365
  br i1 %12, label %13, label %15

13:                                               ; preds = %11
  %14 = fcmp ult double %0, 0x3FF921FB54442D18
  %.19 = select i1 %14, i64 4, i64 5
  br label %15

15:                                               ; preds = %13, %11, %9, %7
  %.0 = phi i64 [ 0, %7 ], [ %., %9 ], [ 3, %11 ], [ %.19, %13 ]
  %16 = getelementptr inbounds nuw [6 x ptr], ptr %5, i64 0, i64 %.0
  %17 = load ptr, ptr %16, align 8, !tbaa !41
  %18 = getelementptr inbounds nuw i8, ptr %17, i64 440
  %19 = load double, ptr %18, align 8, !tbaa !45
  %20 = fsub double %0, %19
  %21 = getelementptr inbounds nuw i8, ptr %17, i64 104
  %22 = load ptr, ptr %21, align 8, !tbaa !55
  %23 = tail call { double, double } %22(double %20, double %1, ptr noundef %17)
  %24 = extractvalue { double, double } %23, 0
  %25 = extractvalue { double, double } %23, 1
  %26 = load ptr, ptr %16, align 8, !tbaa !41
  %27 = getelementptr inbounds nuw i8, ptr %26, i64 456
  %28 = load double, ptr %27, align 8, !tbaa !43
  %29 = fadd double %24, %28
  %30 = getelementptr inbounds nuw i8, ptr %26, i64 464
  %31 = load double, ptr %30, align 8, !tbaa !44
  %32 = fadd double %25, %31
  %.fca.0.insert = insertvalue { double, double } poison, double %29, 0
  %.fca.1.insert = insertvalue { double, double } %.fca.0.insert, double %32, 1
  ret { double, double } %.fca.1.insert
}